target datalayout = "e-m:e-p270:32:32-p271:32:32-p272:64:64-i64:64-i128:128-f80:128-n8:16:32:64-S128"
target triple = "x86_64-pc-linux-gnu"

%"class.datalog::relation_signature" = type { %"class.datalog::tr_infrastructure<datalog::relation_traits>::signature_base" }
%"class.datalog::tr_infrastructure<datalog::relation_traits>::signature_base" = type { %class.ptr_vector }
%class.ptr_vector = type { %class.vector }
%class.vector = type { ptr }
%class.obj_ref = type { ptr, ptr }
%"class.datalog::tr_infrastructure<datalog::relation_traits>::base_ancestor" = type <{ ptr, ptr, %"class.datalog::relation_signature", i32, [4 x i8] }>

@.str.10 = private unnamed_addr constant [8 x i8] c"project\00", align 1

; Function Attrs: mustprogress nounwind uwtable
define linkonce_odr hidden noundef ptr @_ZNK7obj_refI4expr11ast_managerEcvPS0_Ev(ptr noundef nonnull align 8 dereferenceable(16) %0) #5 comdat align 2 {
  %2 = alloca ptr, align 8
  store ptr %0, ptr %2, align 8, !tbaa !41
  %3 = load ptr, ptr %2, align 8
  %4 = getelementptr inbounds nuw %class.obj_ref, ptr %3, i32 0, i32 0
  %5 = load ptr, ptr %4, align 8, !tbaa !43
  ret ptr %5
}

; Function Attrs: mustprogress nounwind uwtable
define linkonce_odr hidden noundef nonnull align 8 dereferenceable(8) ptr @_ZNK7datalog17tr_infrastructureINS_15relation_traitsEE13base_ancestor13get_signatureEv(ptr noundef nonnull align 8 dereferenceable(28) %0) #5 comdat align 2 {
  %2 = alloca ptr, align 8
  store ptr %0, ptr %2, align 8, !tbaa !44
  %3 = load ptr, ptr %2, align 8
  %4 = getelementptr inbounds nuw %"class.datalog::tr_infrastructure<datalog::relation_traits>::base_ancestor", ptr %3, i32 0, i32 2
  ret ptr %4
}

; Function Attrs: mustprogress uwtable
define hidden void @_ZN7datalog21check_relation_plugin14verify_projectERKNS_13relation_baseEP4exprS3_S5_RK7svectorIjjE(ptr noundef nonnull align 8 dereferenceable(56) %0, ptr noundef nonnull align 8 dereferenceable(28) %1, ptr noundef %2, ptr noundef nonnull align 8 dereferenceable(28) %3, ptr noundef %4, ptr noundef nonnull align 8 dereferenceable(8) %5) #4 align 2 personality ptr @__gxx_personality_v0 {
  %7 = alloca ptr, align 8
  %8 = alloca ptr, align 8
  %9 = alloca ptr, align 8
  %10 = alloca ptr, align 8
  %11 = alloca ptr, align 8
  %12 = alloca ptr, align 8
  %13 = alloca %class.obj_ref, align 8
  %14 = alloca %class.obj_ref, align 8
  %15 = alloca ptr, align 8
  %16 = alloca i32, align 4
  %17 = alloca %class.obj_ref, align 8
  store ptr %0, ptr %7, align 8, !tbaa !8
  store ptr %1, ptr %8, align 8, !tbaa !12
  store ptr %2, ptr %9, align 8, !tbaa !47
  store ptr %3, ptr %10, align 8, !tbaa !12
  store ptr %4, ptr %11, align 8, !tbaa !47
  store ptr %5, ptr %12, align 8, !tbaa !364
  %18 = load ptr, ptr %7, align 8
  call void @llvm.lifetime.start.p0(i64 16, ptr %13) #3
  %19 = load ptr, ptr %10, align 8, !tbaa !12
  call void @llvm.lifetime.start.p0(i64 16, ptr %14) #3
  %20 = load ptr, ptr %8, align 8, !tbaa !12
  %21 = call noundef nonnull align 8 dereferenceable(8) ptr @_ZNK7datalog17tr_infrastructureINS_15relation_traitsEE13base_ancestor13get_signatureEv(ptr noundef nonnull align 8 dereferenceable(28) %20)
  %22 = load ptr, ptr %9, align 8, !tbaa !47
  %23 = load ptr, ptr %12, align 8, !tbaa !364
  call void @_ZN7datalog21check_relation_plugin10mk_projectERKNS_18relation_signatureEP4exprRK7svectorIjjE(ptr dead_on_unwind writable sret(%class.obj_ref) align 8 %14, ptr noundef nonnull align 8 dereferenceable(56) %18, ptr noundef nonnull align 8 dereferenceable(8) %21, ptr noundef %22, ptr noundef nonnull align 8 dereferenceable(8) %23)
  %24 = invoke noundef ptr @_ZNK7obj_refI4expr11ast_managerEcvPS0_Ev(ptr noundef nonnull align 8 dereferenceable(16) %14)
          to label %25 unwind label %35

25:                                               ; preds = %6
  invoke void @_ZNK7datalog21check_relation_plugin6groundERKNS_13relation_baseEP4expr(ptr dead_on_unwind writable sret(%class.obj_ref) align 8 %13, ptr noundef nonnull align 8 dereferenceable(56) %18, ptr noundef nonnull align 8 dereferenceable(28) %19, ptr noundef %24)
          to label %26 unwind label %35

26:                                               ; preds = %25
  call void @_ZN7obj_refI4expr11ast_managerED2Ev(ptr noundef nonnull align 8 dereferenceable(16) %14) #3
  call void @llvm.lifetime.end.p0(i64 16, ptr %14) #3
  call void @llvm.lifetime.start.p0(i64 16, ptr %17) #3
  %27 = load ptr, ptr %10, align 8, !tbaa !12
  %28 = load ptr, ptr %11, align 8, !tbaa !47
  invoke void @_ZNK7datalog21check_relation_plugin6groundERKNS_13relation_baseEP4expr(ptr dead_on_unwind writable sret(%class.obj_ref) align 8 %17, ptr noundef nonnull align 8 dereferenceable(56) %18, ptr noundef nonnull align 8 dereferenceable(28) %27, ptr noundef %28)
          to label %29 unwind label %39

29:                                               ; preds = %26
  %30 = invoke noundef ptr @_ZNK7obj_refI4expr11ast_managerEcvPS0_Ev(ptr noundef nonnull align 8 dereferenceable(16) %13)
          to label %31 unwind label %43

31:                                               ; preds = %29
  %32 = invoke noundef ptr @_ZNK7obj_refI4expr11ast_managerEcvPS0_Ev(ptr noundef nonnull align 8 dereferenceable(16) %17)
          to label %33 unwind label %43

33:                                               ; preds = %31
  invoke void @_ZN7datalog21check_relation_plugin11check_equivEPKcP4exprS4_(ptr noundef nonnull align 8 dereferenceable(56) %18, ptr noundef @.str.10, ptr noundef %30, ptr noundef %32)
          to label %34 unwind label %43

34:                                               ; preds = %33
  call void @_ZN7obj_refI4expr11ast_managerED2Ev(ptr noundef nonnull align 8 dereferenceable(16) %17) #3
  call void @llvm.lifetime.end.p0(i64 16, ptr %17) #3
  call void @_ZN7obj_refI4expr11ast_managerED2Ev(ptr noundef nonnull align 8 dereferenceable(16) %13) #3
  call void @llvm.lifetime.end.p0(i64 16, ptr %13) #3
  ret void

35:                                               ; preds = %25, %6
  %36 = landingpad { ptr, i32 }
          cleanup
  %37 = extractvalue { ptr, i32 } %36, 0
  store ptr %37, ptr %15, align 8
  %38 = extractvalue { ptr, i32 } %36, 1
  store i32 %38, ptr %16, align 4
  call void @_ZN7obj_refI4expr11ast_managerED2Ev(ptr noundef nonnull align 8 dereferenceable(16) %14) #3
  call void @llvm.lifetime.end.p0(i64 16, ptr %14) #3
  br label %48

39:                                               ; preds = %26
  %40 = landingpad { ptr, i32 }
          cleanup
  %41 = extractvalue { ptr, i32 } %40, 0
  store ptr %41, ptr %15, align 8
  %42 = extractvalue { ptr, i32 } %40, 1
  store i32 %42, ptr %16, align 4
  br label %47

43:                                               ; preds = %33, %31, %29
  %44 = landingpad { ptr, i32 }
          cleanup
  %45 = extractvalue { ptr, i32 } %44, 0
  store ptr %45, ptr %15, align 8
  %46 = extractvalue { ptr, i32 } %44, 1
  store i32 %46, ptr %16, align 4
  call void @_ZN7obj_refI4expr11ast_managerED2Ev(ptr noundef nonnull align 8 dereferenceable(16) %17) #3
  br label %47

47:                                               ; preds = %43, %39
  call void @llvm.lifetime.end.p0(i64 16, ptr %17) #3
  call void @_ZN7obj_refI4expr11ast_managerED2Ev(ptr noundef nonnull align 8 dereferenceable(16) %13) #3
  br label %48

48:                                               ; preds = %47, %35
  call void @llvm.lifetime.end.p0(i64 16, ptr %13) #3
  br label %49

49:                                               ; preds = %48
  %50 = load ptr, ptr %15, align 8
  %51 = load i32, ptr %16, align 4
  %52 = insertvalue { ptr, i32 } poison, ptr %50, 0
  %53 = insertvalue { ptr, i32 } %52, i32 %51, 1
  resume { ptr, i32 } %53
}