; Function Attrs: mustprogress uwtable
define hidden void @_ZN7datalog21check_relation_plugin14verify_projectERKNS_13relation_baseEP4exprS3_S5_RK7svectorIjjE(ptr noundef nonnull readonly align 8 captures(none) dereferenceable(56) %0, ptr noundef nonnull readonly align 8 captures(none) dereferenceable(28) %1, ptr noundef %2, ptr noundef nonnull readonly align 8 captures(none) dereferenceable(28) %3, ptr noundef %4, ptr noundef nonnull readonly align 8 captures(none) dereferenceable(8) %5) local_unnamed_addr #3 align 2 personality ptr @__gxx_personality_v0 {
  %7 = alloca %class.obj_ref, align 8
  %8 = alloca %class.obj_ref, align 8
  %9 = alloca %class.obj_ref, align 8
  call void @llvm.lifetime.start.p0(i64 16, ptr nonnull %7) #24
  call void @llvm.lifetime.start.p0(i64 16, ptr nonnull %8) #24
  %10 = getelementptr inbounds nuw i8, ptr %1, i64 16
  call void @_ZN7datalog21check_relation_plugin10mk_projectERKNS_18relation_signatureEP4exprRK7svectorIjjE(ptr dead_on_unwind nonnull writable sret(%class.obj_ref) align 8 %8, ptr noundef nonnull align 8 dereferenceable(56) %0, ptr noundef nonnull align 8 dereferenceable(8) %10, ptr noundef %2, ptr noundef nonnull align 8 dereferenceable(8) %5)
  %11 = load ptr, ptr %8, align 8, !tbaa !35
  invoke void @_ZNK7datalog21check_relation_plugin6groundERKNS_13relation_baseEP4expr(ptr dead_on_unwind nonnull writable sret(%class.obj_ref) align 8 %7, ptr noundef nonnull align 8 dereferenceable(56) %0, ptr noundef nonnull align 8 dereferenceable(28) %3, ptr noundef %11)
          to label %12 unwind label %53

12:                                               ; preds = %6
  %13 = load ptr, ptr %8, align 8, !tbaa !35
  %.not.i.i = icmp eq ptr %13, null
  br i1 %.not.i.i, label %_ZN7obj_refI4expr11ast_managerED2Ev.exit, label %14

14:                                               ; preds = %12
  %15 = getelementptr inbounds nuw i8, ptr %8, i64 8
  %16 = load ptr, ptr %15, align 8, !tbaa !36
  %17 = getelementptr inbounds nuw i8, ptr %13, i64 8
  %18 = load i32, ptr %17, align 4, !tbaa !37
  %19 = add i32 %18, -1
  store i32 %19, ptr %17, align 4, !tbaa !37
  %20 = icmp eq i32 %19, 0
  br i1 %20, label %21, label %_ZN7obj_refI4expr11ast_managerED2Ev.exit

21:                                               ; preds = %14
  invoke void @_ZN11ast_manager11delete_nodeEP3ast(ptr noundef nonnull align 8 dereferenceable(976) %16, ptr noundef nonnull %13)
          to label %_ZN7obj_refI4expr11ast_managerED2Ev.exit unwind label %22

22:                                               ; preds = %21
  %23 = landingpad { ptr, i32 }
          catch ptr null
  %24 = extractvalue { ptr, i32 } %23, 0
  call void @__clang_call_terminate(ptr %24) #25
  unreachable

_ZN7obj_refI4expr11ast_managerED2Ev.exit:         ; preds = %12, %14, %21
  call void @llvm.lifetime.end.p0(i64 16, ptr nonnull %8) #24
  call void @llvm.lifetime.start.p0(i64 16, ptr nonnull %9) #24
  invoke void @_ZNK7datalog21check_relation_plugin6groundERKNS_13relation_baseEP4expr(ptr dead_on_unwind nonnull writable sret(%class.obj_ref) align 8 %9, ptr noundef nonnull align 8 dereferenceable(56) %0, ptr noundef nonnull align 8 dereferenceable(28) %3, ptr noundef %4)
          to label %25 unwind label %55

25:                                               ; preds = %_ZN7obj_refI4expr11ast_managerED2Ev.exit
  %26 = load ptr, ptr %7, align 8, !tbaa !35
  %27 = load ptr, ptr %9, align 8, !tbaa !35
  invoke void @_ZN7datalog21check_relation_plugin11check_equivEPKcP4exprS4_(ptr noundef nonnull align 8 dereferenceable(56) %0, ptr noundef nonnull @.str.10, ptr noundef %26, ptr noundef %27)
          to label %28 unwind label %57

28:                                               ; preds = %25
  %29 = load ptr, ptr %9, align 8, !tbaa !35
  %.not.i.i12 = icmp eq ptr %29, null
  br i1 %.not.i.i12, label %_ZN7obj_refI4expr11ast_managerED2Ev.exit13, label %30

30:                                               ; preds = %28
  %31 = getelementptr inbounds nuw i8, ptr %9, i64 8
  %32 = load ptr, ptr %31, align 8, !tbaa !36
  %33 = getelementptr inbounds nuw i8, ptr %29, i64 8
  %34 = load i32, ptr %33, align 4, !tbaa !37
  %35 = add i32 %34, -1
  store i32 %35, ptr %33, align 4, !tbaa !37
  %36 = icmp eq i32 %35, 0
  br i1 %36, label %37, label %_ZN7obj_refI4expr11ast_managerED2Ev.exit13

37:                                               ; preds = %30
  invoke void @_ZN11ast_manager11delete_nodeEP3ast(ptr noundef nonnull align 8 dereferenceable(976) %32, ptr noundef nonnull %29)
          to label %_ZN7obj_refI4expr11ast_managerED2Ev.exit13 unwind label %38

38:                                               ; preds = %37
  %39 = landingpad { ptr, i32 }
          catch ptr null
  %40 = extractvalue { ptr, i32 } %39, 0
  call void @__clang_call_terminate(ptr %40) #25
  unreachable

_ZN7obj_refI4expr11ast_managerED2Ev.exit13:       ; preds = %28, %30, %37
  call void @llvm.lifetime.end.p0(i64 16, ptr nonnull %9) #24
  %41 = load ptr, ptr %7, align 8, !tbaa !35
  %.not.i.i14 = icmp eq ptr %41, null
  br i1 %.not.i.i14, label %_ZN7obj_refI4expr11ast_managerED2Ev.exit15, label %42

42:                                               ; preds = %_ZN7obj_refI4expr11ast_managerED2Ev.exit13
  %43 = getelementptr inbounds nuw i8, ptr %7, i64 8
  %44 = load ptr, ptr %43, align 8, !tbaa !36
  %45 = getelementptr inbounds nuw i8, ptr %41, i64 8
  %46 = load i32, ptr %45, align 4, !tbaa !37
  %47 = add i32 %46, -1
  store i32 %47, ptr %45, align 4, !tbaa !37
  %48 = icmp eq i32 %47, 0
  br i1 %48, label %49, label %_ZN7obj_refI4expr11ast_managerED2Ev.exit15

49:                                               ; preds = %42
  invoke void @_ZN11ast_manager11delete_nodeEP3ast(ptr noundef nonnull align 8 dereferenceable(976) %44, ptr noundef nonnull %41)
          to label %_ZN7obj_refI4expr11ast_managerED2Ev.exit15 unwind label %50

50:                                               ; preds = %49
  %51 = landingpad { ptr, i32 }
          catch ptr null
  %52 = extractvalue { ptr, i32 } %51, 0
  call void @__clang_call_terminate(ptr %52) #25
  unreachable

_ZN7obj_refI4expr11ast_managerED2Ev.exit15:       ; preds = %_ZN7obj_refI4expr11ast_managerED2Ev.exit13, %42, %49
  call void @llvm.lifetime.end.p0(i64 16, ptr nonnull %7) #24
  ret void

53:                                               ; preds = %6
  %54 = landingpad { ptr, i32 }
          cleanup
  call void @_ZN7obj_refI4expr11ast_managerED2Ev(ptr noundef nonnull align 8 dereferenceable(16) %8) #24
  call void @llvm.lifetime.end.p0(i64 16, ptr nonnull %8) #24
  br label %60

55:                                               ; preds = %_ZN7obj_refI4expr11ast_managerED2Ev.exit
  %56 = landingpad { ptr, i32 }
          cleanup
  br label %59

57:                                               ; preds = %25
  %58 = landingpad { ptr, i32 }
          cleanup
  call void @_ZN7obj_refI4expr11ast_managerED2Ev(ptr noundef nonnull align 8 dereferenceable(16) %9) #24
  br label %59

59:                                               ; preds = %57, %55
  %.pn = phi { ptr, i32 } [ %58, %57 ], [ %56, %55 ]
  call void @llvm.lifetime.end.p0(i64 16, ptr nonnull %9) #24
  call void @_ZN7obj_refI4expr11ast_managerED2Ev(ptr noundef nonnull align 8 dereferenceable(16) %7) #24
  br label %60

60:                                               ; preds = %59, %53
  %.pn.pn = phi { ptr, i32 } [ %.pn, %59 ], [ %54, %53 ]
  call void @llvm.lifetime.end.p0(i64 16, ptr nonnull %7) #24
  resume { ptr, i32 } %.pn.pn
}